; ModuleID = 'source-C-CXX/46/2123.cpp'
source_filename = "source-C-CXX/46/2123.cpp"
target datalayout = "e-m:e-p270:32:32-p271:32:32-p272:64:64-i64:64-f80:128-n8:16:32:64-S128"
target triple = "x86_64-pc-linux-gnu"

%"class.std::ios_base::Init" = type { i8 }
%"class.std::basic_istream" = type { i32 (...)**, i64, %"class.std::basic_ios" }
%"class.std::basic_ios" = type { %"class.std::ios_base", %"class.std::basic_ostream"*, i8, i8, %"class.std::basic_streambuf"*, %"class.std::ctype"*, %"class.std::num_put"*, %"class.std::num_get"* }
%"class.std::ios_base" = type { i32 (...)**, i64, i64, i32, i32, i32, %"struct.std::ios_base::_Callback_list"*, %"struct.std::ios_base::_Words", [8 x %"struct.std::ios_base::_Words"], i32, %"struct.std::ios_base::_Words"*, %"class.std::locale" }
%"struct.std::ios_base::_Callback_list" = type { %"struct.std::ios_base::_Callback_list"*, void (i32, %"class.std::ios_base"*, i32)*, i32, i32 }
%"struct.std::ios_base::_Words" = type { i8*, i64 }
%"class.std::locale" = type { %"class.std::locale::_Impl"* }
%"class.std::locale::_Impl" = type { i32, %"class.std::locale::facet"**, i64, %"class.std::locale::facet"**, i8** }
%"class.std::locale::facet" = type <{ i32 (...)**, i32, [4 x i8] }>
%"class.std::basic_ostream" = type { i32 (...)**, %"class.std::basic_ios" }
%"class.std::basic_streambuf" = type { i32 (...)**, i8*, i8*, i8*, i8*, i8*, i8*, %"class.std::locale" }
%"class.std::ctype" = type <{ %"class.std::locale::facet.base", [4 x i8], %struct.__locale_struct*, i8, [7 x i8], i32*, i32*, i16*, i8, [256 x i8], [256 x i8], i8, [6 x i8] }>
%"class.std::locale::facet.base" = type <{ i32 (...)**, i32 }>
%struct.__locale_struct = type { [13 x %struct.__locale_data*], i16*, i32*, i32*, [13 x i8*] }
%struct.__locale_data = type opaque
%"class.std::num_put" = type { %"class.std::locale::facet.base", [4 x i8] }
%"class.std::num_get" = type { %"class.std::locale::facet.base", [4 x i8] }

@_ZStL8__ioinit = internal global %"class.std::ios_base::Init" zeroinitializer, align 1
@__dso_handle = external hidden global i8
@_ZSt3cin = external global %"class.std::basic_istream", align 8
@_ZSt4cout = external global %"class.std::basic_ostream", align 8
@.str = private unnamed_addr constant [2 x i8] c" \00", align 1
@llvm.global_ctors = appending global [1 x { i32, void ()*, i8* }] [{ i32, void ()*, i8* } { i32 65535, void ()* @_GLOBAL__sub_I_2123.cpp, i8* null }]

declare void @_ZNSt8ios_base4InitC1Ev(%"class.std::ios_base::Init"* nonnull align 1 dereferenceable(1)) unnamed_addr #0

; Function Attrs: nounwind
declare void @_ZNSt8ios_base4InitD1Ev(%"class.std::ios_base::Init"* nonnull align 1 dereferenceable(1)) unnamed_addr #1

; Function Attrs: nofree nounwind
declare i32 @__cxa_atexit(void (i8*)*, i8*, i8*) local_unnamed_addr #2

; Function Attrs: mustprogress norecurse sspstrong uwtable
define dso_local i32 @main() local_unnamed_addr #3 {
  %1 = alloca [100 x i32], align 16
  %2 = alloca i32, align 4
  %3 = bitcast [100 x i32]* %1 to i8*
  call void @llvm.lifetime.start.p0i8(i64 400, i8* nonnull %3) #7
  call void @llvm.memset.p0i8.i64(i8* noundef nonnull align 16 dereferenceable(400) %3, i8 0, i64 400, i1 false)
  %4 = bitcast i32* %2 to i8*
  call void @llvm.lifetime.start.p0i8(i64 4, i8* nonnull %4) #7
  %5 = call nonnull align 8 dereferenceable(16) %"class.std::basic_istream"* @_ZNSirsERi(%"class.std::basic_istream"* nonnull align 8 dereferenceable(16) @_ZSt3cin, i32* nonnull align 4 dereferenceable(4) %2)
  %6 = load i32, i32* %2, align 4, !tbaa !5
  %7 = icmp sgt i32 %6, 0
  br i1 %7, label %19, label %36

8:                                                ; preds = %19
  %9 = sext i32 %24 to i64
  %10 = getelementptr inbounds [100 x i32], [100 x i32]* %1, i64 0, i64 %9
  %11 = icmp sgt i32 %24, 1
  br i1 %11, label %12, label %36

12:                                               ; preds = %8
  %13 = lshr i32 %24, 1
  %14 = zext i32 %13 to i64
  %15 = and i64 %14, 1
  %16 = icmp eq i32 %13, 1
  br i1 %16, label %27, label %17

17:                                               ; preds = %12
  %18 = and i64 %14, 2147483646
  br label %42

19:                                               ; preds = %0, %19
  %20 = phi i64 [ %23, %19 ], [ 0, %0 ]
  %21 = getelementptr inbounds [100 x i32], [100 x i32]* %1, i64 0, i64 %20
  %22 = call nonnull align 8 dereferenceable(16) %"class.std::basic_istream"* @_ZNSirsERi(%"class.std::basic_istream"* nonnull align 8 dereferenceable(16) @_ZSt3cin, i32* nonnull align 4 dereferenceable(4) %21)
  %23 = add nuw nsw i64 %20, 1
  %24 = load i32, i32* %2, align 4, !tbaa !5
  %25 = sext i32 %24 to i64
  %26 = icmp slt i64 %23, %25
  br i1 %26, label %19, label %8, !llvm.loop !9

27:                                               ; preds = %42, %12
  %28 = phi i64 [ 0, %12 ], [ %56, %42 ]
  %29 = icmp eq i64 %15, 0
  br i1 %29, label %36, label %30

30:                                               ; preds = %27
  %31 = getelementptr inbounds [100 x i32], [100 x i32]* %1, i64 0, i64 %28
  %32 = load i32, i32* %31, align 4, !tbaa !5
  %33 = xor i64 %28, -1
  %34 = getelementptr inbounds i32, i32* %10, i64 %33
  %35 = load i32, i32* %34, align 4, !tbaa !5
  store i32 %35, i32* %31, align 4, !tbaa !5
  store i32 %32, i32* %34, align 4, !tbaa !5
  br label %36

36:                                               ; preds = %30, %27, %0, %8
  %37 = getelementptr inbounds [100 x i32], [100 x i32]* %1, i64 0, i64 0
  %38 = load i32, i32* %37, align 16, !tbaa !5
  %39 = call nonnull align 8 dereferenceable(8) %"class.std::basic_ostream"* @_ZNSolsEi(%"class.std::basic_ostream"* nonnull align 8 dereferenceable(8) @_ZSt4cout, i32 %38)
  %40 = load i32, i32* %2, align 4, !tbaa !5
  %41 = icmp sgt i32 %40, 1
  br i1 %41, label %60, label %59

42:                                               ; preds = %42, %17
  %43 = phi i64 [ 0, %17 ], [ %56, %42 ]
  %44 = phi i64 [ %18, %17 ], [ %57, %42 ]
  %45 = getelementptr inbounds [100 x i32], [100 x i32]* %1, i64 0, i64 %43
  %46 = load i32, i32* %45, align 8, !tbaa !5
  %47 = xor i64 %43, -1
  %48 = getelementptr inbounds i32, i32* %10, i64 %47
  %49 = load i32, i32* %48, align 4, !tbaa !5
  store i32 %49, i32* %45, align 8, !tbaa !5
  store i32 %46, i32* %48, align 4, !tbaa !5
  %50 = or i64 %43, 1
  %51 = getelementptr inbounds [100 x i32], [100 x i32]* %1, i64 0, i64 %50
  %52 = load i32, i32* %51, align 4, !tbaa !5
  %53 = sub nuw nsw i64 -2, %43
  %54 = getelementptr inbounds i32, i32* %10, i64 %53
  %55 = load i32, i32* %54, align 4, !tbaa !5
  store i32 %55, i32* %51, align 4, !tbaa !5
  store i32 %52, i32* %54, align 4, !tbaa !5
  %56 = add nuw nsw i64 %43, 2
  %57 = add i64 %44, -2
  %58 = icmp eq i64 %57, 0
  br i1 %58, label %27, label %42, !llvm.loop !11

59:                                               ; preds = %60, %36
  call void @llvm.lifetime.end.p0i8(i64 4, i8* nonnull %4) #7
  call void @llvm.lifetime.end.p0i8(i64 400, i8* nonnull %3) #7
  ret i32 0

60:                                               ; preds = %36, %60
  %61 = phi i64 [ %66, %60 ], [ 1, %36 ]
  %62 = call nonnull align 8 dereferenceable(8) %"class.std::basic_ostream"* @_ZSt16__ostream_insertIcSt11char_traitsIcEERSt13basic_ostreamIT_T0_ES6_PKS3_l(%"class.std::basic_ostream"* nonnull align 8 dereferenceable(8) @_ZSt4cout, i8* nonnull getelementptr inbounds ([2 x i8], [2 x i8]* @.str, i64 0, i64 0), i64 1)
  %63 = getelementptr inbounds [100 x i32], [100 x i32]* %1, i64 0, i64 %61
  %64 = load i32, i32* %63, align 4, !tbaa !5
  %65 = call nonnull align 8 dereferenceable(8) %"class.std::basic_ostream"* @_ZNSolsEi(%"class.std::basic_ostream"* nonnull align 8 dereferenceable(8) @_ZSt4cout, i32 %64)
  %66 = add nuw nsw i64 %61, 1
  %67 = load i32, i32* %2, align 4, !tbaa !5
  %68 = sext i32 %67 to i64
  %69 = icmp slt i64 %66, %68
  br i1 %69, label %60, label %59, !llvm.loop !12
}

; Function Attrs: argmemonly mustprogress nofree nosync nounwind willreturn
declare void @llvm.lifetime.start.p0i8(i64 immarg, i8* nocapture) #4

; Function Attrs: argmemonly mustprogress nofree nounwind willreturn writeonly
declare void @llvm.memset.p0i8.i64(i8* nocapture writeonly, i8, i64, i1 immarg) #5

declare nonnull align 8 dereferenceable(16) %"class.std::basic_istream"* @_ZNSirsERi(%"class.std::basic_istream"* nonnull align 8 dereferenceable(16), i32* nonnull align 4 dereferenceable(4)) local_unnamed_addr #0

; Function Attrs: argmemonly mustprogress nofree nosync nounwind willreturn
declare void @llvm.lifetime.end.p0i8(i64 immarg, i8* nocapture) #4

declare nonnull align 8 dereferenceable(8) %"class.std::basic_ostream"* @_ZNSolsEi(%"class.std::basic_ostream"* nonnull align 8 dereferenceable(8), i32) local_unnamed_addr #0

declare nonnull align 8 dereferenceable(8) %"class.std::basic_ostream"* @_ZSt16__ostream_insertIcSt11char_traitsIcEERSt13basic_ostreamIT_T0_ES6_PKS3_l(%"class.std::basic_ostream"* nonnull align 8 dereferenceable(8), i8*, i64) local_unnamed_addr #0

; Function Attrs: sspstrong uwtable
define internal void @_GLOBAL__sub_I_2123.cpp() #6 section ".text.startup" {
  tail call void @_ZNSt8ios_base4InitC1Ev(%"class.std::ios_base::Init"* nonnull align 1 dereferenceable(1) @_ZStL8__ioinit)
  %1 = tail call i32 @__cxa_atexit(void (i8*)* bitcast (void (%"class.std::ios_base::Init"*)* @_ZNSt8ios_base4InitD1Ev to void (i8*)*), i8* getelementptr inbounds (%"class.std::ios_base::Init", %"class.std::ios_base::Init"* @_ZStL8__ioinit, i64 0, i32 0), i8* nonnull @__dso_handle) #7
  ret void
}


!llvm.module.flags = !{!0, !1, !2, !3}
!llvm.ident = !{!4}

!0 = !{i32 1, !"wchar_size", i32 4}
!1 = !{i32 7, !"PIC Level", i32 2}
!2 = !{i32 7, !"PIE Level", i32 2}
!3 = !{i32 7, !"uwtable", i32 1}
!4 = !{!"clang version 13.0.0"}
!5 = !{!6, !6, i64 0}
!6 = !{!"int", !7, i64 0}
!7 = !{!"omnipotent char", !8, i64 0}
!8 = !{!"Simple C++ TBAA"}
!9 = distinct !{!9, !10}
!10 = !{!"llvm.loop.mustprogress"}
!11 = distinct !{!11, !10}
!12 = distinct !{!12, !10}
